target datalayout = "e-m:e-p270:32:32-p271:32:32-p272:64:64-i64:64-i128:128-f80:128-n8:16:32:64-S128"
target triple = "x86_64-pc-linux-gnu"

%struct.RBasic = type { i64, i64 }
%struct.RFile = type { %struct.RBasic, ptr }
%struct.rb_io = type { i64, ptr, i32, i32, i32, i32, i64, ptr, %struct.rb_io_internal_buffer, %struct.rb_io_internal_buffer, i64, %struct.rb_io_encoding, ptr, %struct.rb_io_internal_buffer, ptr, i64, i32, i32, i64, i64, i64 }
%struct.rb_io_encoding = type { ptr, ptr, i32, i64 }
%struct.rb_io_internal_buffer = type <{ ptr, i32, i32, i32 }>

@rb_eTypeError = external global i64, align 8
@.str.53 = private unnamed_addr constant [31 x i8] c"neither IO nor file descriptor\00", align 1

; Function Attrs: inlinehint nounwind sspstrong willreturn memory(none) uwtable
define internal zeroext i1 @RB_IMMEDIATE_P(i64 noundef %0) #6 {
  %2 = alloca i64, align 8
  store i64 %0, ptr %2, align 8, !tbaa !31
  %3 = load i64, ptr %2, align 8, !tbaa !31
  %4 = and i64 %3, 7
  %5 = icmp ne i64 %4, 0
  ret i1 %5
}

; Function Attrs: inlinehint nounwind sspstrong willreturn memory(none) uwtable
define internal zeroext i1 @RB_FLONUM_P(i64 noundef %0) #6 {
  %2 = alloca i64, align 8
  store i64 %0, ptr %2, align 8, !tbaa !31
  %3 = load i64, ptr %2, align 8, !tbaa !31
  %4 = and i64 %3, 3
  %5 = icmp eq i64 %4, 2
  ret i1 %5
}

; Function Attrs: inlinehint nounwind sspstrong willreturn memory(none) uwtable
define internal zeroext i1 @RB_STATIC_SYM_P(i64 noundef %0) #6 {
  %2 = alloca i64, align 8
  %3 = alloca i64, align 8
  store i64 %0, ptr %2, align 8, !tbaa !31
  call void @llvm.lifetime.start.p0(i64 8, ptr %3) #24
  store i64 255, ptr %3, align 8, !tbaa !31
  %4 = load i64, ptr %2, align 8, !tbaa !31
  %5 = and i64 %4, 255
  %6 = icmp eq i64 %5, 12
  call void @llvm.lifetime.end.p0(i64 8, ptr %3) #24
  ret i1 %6
}

; Function Attrs: inlinehint nounwind sspstrong willreturn memory(none) uwtable
define internal zeroext i1 @RB_FIXNUM_P(i64 noundef %0) #6 {
  %2 = alloca i64, align 8
  store i64 %0, ptr %2, align 8, !tbaa !31
  %3 = load i64, ptr %2, align 8, !tbaa !31
  %4 = and i64 %3, 1
  %5 = icmp ne i64 %4, 0
  ret i1 %5
}

; Function Attrs: inlinehint nounwind sspstrong willreturn memory(read) uwtable
define internal i32 @RB_BUILTIN_TYPE(i64 noundef %0) #13 {
  %2 = alloca i64, align 8
  %3 = alloca i64, align 8
  store i64 %0, ptr %2, align 8, !tbaa !31
  call void @llvm.lifetime.start.p0(i64 8, ptr %3) #24
  %4 = load i64, ptr %2, align 8, !tbaa !31
  %5 = inttoptr i64 %4 to ptr
  %6 = getelementptr inbounds nuw %struct.RBasic, ptr %5, i32 0, i32 0
  %7 = load i64, ptr %6, align 8, !tbaa !178
  %8 = and i64 %7, 31
  store i64 %8, ptr %3, align 8, !tbaa !31
  %9 = load i64, ptr %3, align 8, !tbaa !31
  %10 = trunc i64 %9 to i32
  call void @llvm.lifetime.end.p0(i64 8, ptr %3) #24
  ret i32 %10
}

; Function Attrs: inlinehint nounwind sspstrong willreturn memory(none) uwtable
define internal zeroext i1 @RB_SPECIAL_CONST_P(i64 noundef %0) #6 {
  %2 = alloca i64, align 8
  store i64 %0, ptr %2, align 8, !tbaa !31
  %3 = load i64, ptr %2, align 8, !tbaa !31
  %4 = icmp eq i64 %3, 0
  br i1 %4, label %8, label %5

5:                                                ; preds = %1
  %6 = load i64, ptr %2, align 8, !tbaa !31
  %7 = call zeroext i1 @RB_IMMEDIATE_P(i64 noundef %6) #28
  br label %8

8:                                                ; preds = %5, %1
  %9 = phi i1 [ true, %1 ], [ %7, %5 ]
  ret i1 %9
}

; Function Attrs: inlinehint nounwind sspstrong uwtable
define internal i32 @rb_num2int_inline(i64 noundef %0) #5 {
  %2 = alloca i64, align 8
  %3 = alloca i64, align 8
  store i64 %0, ptr %2, align 8, !tbaa !31
  call void @llvm.lifetime.start.p0(i64 8, ptr %3) #24
  %4 = load i64, ptr %2, align 8, !tbaa !31
  %5 = call zeroext i1 @RB_FIXNUM_P(i64 noundef %4) #28
  br i1 %5, label %6, label %9

6:                                                ; preds = %1
  %7 = load i64, ptr %2, align 8, !tbaa !31
  %8 = call i64 @rb_fix2int(i64 noundef %7)
  store i64 %8, ptr %3, align 8, !tbaa !31
  br label %12

9:                                                ; preds = %1
  %10 = load i64, ptr %2, align 8, !tbaa !31
  %11 = call i64 @rb_num2int(i64 noundef %10)
  store i64 %11, ptr %3, align 8, !tbaa !31
  br label %12

12:                                               ; preds = %9, %6
  %13 = load i64, ptr %3, align 8, !tbaa !31
  %14 = trunc i64 %13 to i32
  call void @llvm.lifetime.end.p0(i64 8, ptr %3) #24
  ret i32 %14
}

; Function Attrs: inlinehint nounwind sspstrong uwtable
define internal i32 @RB_FIX2INT(i64 noundef %0) #5 {
  %2 = alloca i64, align 8
  %3 = alloca i64, align 8
  store i64 %0, ptr %2, align 8, !tbaa !31
  call void @llvm.lifetime.start.p0(i64 8, ptr %3) #24
  %4 = load i64, ptr %2, align 8, !tbaa !31
  %5 = call i64 @rb_fix2int(i64 noundef %4)
  store i64 %5, ptr %3, align 8, !tbaa !31
  %6 = load i64, ptr %3, align 8, !tbaa !31
  %7 = trunc i64 %6 to i32
  call void @llvm.lifetime.end.p0(i64 8, ptr %3) #24
  ret i32 %7
}

; Function Attrs: inlinehint nounwind sspstrong willreturn memory(read) uwtable
define internal i32 @rb_type(i64 noundef %0) #13 {
  %2 = alloca i32, align 4
  %3 = alloca i64, align 8
  store i64 %0, ptr %3, align 8, !tbaa !31
  %4 = load i64, ptr %3, align 8, !tbaa !31
  %5 = call zeroext i1 @RB_SPECIAL_CONST_P(i64 noundef %4) #28
  br i1 %5, label %9, label %6

6:                                                ; preds = %1
  %7 = load i64, ptr %3, align 8, !tbaa !31
  %8 = call i32 @RB_BUILTIN_TYPE(i64 noundef %7) #30
  store i32 %8, ptr %2, align 4
  br label %36

9:                                                ; preds = %1
  %10 = load i64, ptr %3, align 8, !tbaa !31
  %11 = icmp eq i64 %10, 0
  br i1 %11, label %12, label %13

12:                                               ; preds = %9
  store i32 19, ptr %2, align 4
  br label %36

13:                                               ; preds = %9
  %14 = load i64, ptr %3, align 8, !tbaa !31
  %15 = icmp eq i64 %14, 4
  br i1 %15, label %16, label %17

16:                                               ; preds = %13
  store i32 17, ptr %2, align 4
  br label %36

17:                                               ; preds = %13
  %18 = load i64, ptr %3, align 8, !tbaa !31
  %19 = icmp eq i64 %18, 20
  br i1 %19, label %20, label %21

20:                                               ; preds = %17
  store i32 18, ptr %2, align 4
  br label %36

21:                                               ; preds = %17
  %22 = load i64, ptr %3, align 8, !tbaa !31
  %23 = icmp eq i64 %22, 36
  br i1 %23, label %24, label %25

24:                                               ; preds = %21
  store i32 22, ptr %2, align 4
  br label %36

25:                                               ; preds = %21
  %26 = load i64, ptr %3, align 8, !tbaa !31
  %27 = call zeroext i1 @RB_FIXNUM_P(i64 noundef %26) #28
  br i1 %27, label %28, label %29

28:                                               ; preds = %25
  store i32 21, ptr %2, align 4
  br label %36

29:                                               ; preds = %25
  %30 = load i64, ptr %3, align 8, !tbaa !31
  %31 = call zeroext i1 @RB_STATIC_SYM_P(i64 noundef %30) #28
  br i1 %31, label %32, label %33

32:                                               ; preds = %29
  store i32 20, ptr %2, align 4
  br label %36

33:                                               ; preds = %29
  %34 = load i64, ptr %3, align 8, !tbaa !31
  %35 = call zeroext i1 @RB_FLONUM_P(i64 noundef %34) #28
  call void @llvm.assume(i1 %35)
  store i32 4, ptr %2, align 4
  br label %36

36:                                               ; preds = %33, %32, %28, %24, %20, %16, %12, %6
  %37 = load i32, ptr %2, align 4
  ret i32 %37
}

; Function Attrs: nounwind sspstrong uwtable
define i64 @rsock_io_socket_addrinfo(i64 noundef %0, ptr noundef %1, i32 noundef %2) #0 {
  %4 = alloca i64, align 8
  %5 = alloca i64, align 8
  %6 = alloca ptr, align 8
  %7 = alloca i32, align 4
  %8 = alloca ptr, align 8
  %9 = alloca i32, align 4
  store i64 %0, ptr %5, align 8, !tbaa !31
  store ptr %1, ptr %6, align 8, !tbaa !29
  store i32 %2, ptr %7, align 4, !tbaa !27
  call void @llvm.lifetime.start.p0(i64 8, ptr %8) #24
  %10 = load i64, ptr %5, align 8, !tbaa !31
  %11 = call i32 @rb_type(i64 noundef %10) #30
  switch i32 %11, label %36 [
    i32 21, label %12
    i32 10, label %18
    i32 11, label %24
  ]

12:                                               ; preds = %3
  %13 = load i64, ptr %5, align 8, !tbaa !31
  %14 = call i32 @RB_FIX2INT(i64 noundef %13)
  %15 = load ptr, ptr %6, align 8, !tbaa !29
  %16 = load i32, ptr %7, align 4, !tbaa !27
  %17 = call i64 @rsock_fd_socket_addrinfo(i32 noundef %14, ptr noundef %15, i32 noundef %16)
  store i64 %17, ptr %4, align 8
  store i32 1, ptr %9, align 4
  br label %38

18:                                               ; preds = %3
  %19 = load i64, ptr %5, align 8, !tbaa !31
  %20 = call i32 @rb_num2int_inline(i64 noundef %19)
  %21 = load ptr, ptr %6, align 8, !tbaa !29
  %22 = load i32, ptr %7, align 4, !tbaa !27
  %23 = call i64 @rsock_fd_socket_addrinfo(i32 noundef %20, ptr noundef %21, i32 noundef %22)
  store i64 %23, ptr %4, align 8
  store i32 1, ptr %9, align 4
  br label %38

24:                                               ; preds = %3
  %25 = load i64, ptr %5, align 8, !tbaa !31
  %26 = call i64 @rb_io_taint_check(i64 noundef %25)
  %27 = inttoptr i64 %26 to ptr
  %28 = getelementptr inbounds nuw %struct.RFile, ptr %27, i32 0, i32 1
  %29 = load ptr, ptr %28, align 8, !tbaa !142
  store ptr %29, ptr %8, align 8, !tbaa !145
  call void @rb_io_check_closed(ptr noundef %29)
  %30 = load ptr, ptr %8, align 8, !tbaa !145
  %31 = getelementptr inbounds nuw %struct.rb_io, ptr %30, i32 0, i32 2
  %32 = load i32, ptr %31, align 8, !tbaa !146
  %33 = load ptr, ptr %6, align 8, !tbaa !29
  %34 = load i32, ptr %7, align 4, !tbaa !27
  %35 = call i64 @rsock_fd_socket_addrinfo(i32 noundef %32, ptr noundef %33, i32 noundef %34)
  store i64 %35, ptr %4, align 8
  store i32 1, ptr %9, align 4
  br label %38

36:                                               ; preds = %3
  %37 = load i64, ptr @rb_eTypeError, align 8, !tbaa !31
  call void (i64, ptr, ...) @rb_raise(i64 noundef %37, ptr noundef @.str.53) #27
  unreachable

38:                                               ; preds = %24, %18, %12
  call void @llvm.lifetime.end.p0(i64 8, ptr %8) #24
  %39 = load i64, ptr %4, align 8
  ret i64 %39
}