; Function Attrs: nounwind sspstrong uwtable
define i64 @rsock_io_socket_addrinfo(i64 noundef %0, ptr noundef readonly captures(none) %1, i32 noundef %2) local_unnamed_addr #0 {
  %4 = icmp eq i64 %0, 0
  %5 = and i64 %0, 7
  %6 = icmp ne i64 %5, 0
  %7 = or i1 %4, %6
  br i1 %7, label %8, label %rb_type.exit

8:                                                ; preds = %3
  %9 = tail call i64 @llvm.fshl.i64(i64 %0, i64 %0, i64 62)
  switch i64 %9, label %10 [
    i64 0, label %rb_type.exit.thread
    i64 1, label %rb_type.exit.thread
    i64 5, label %rb_type.exit.thread
    i64 9, label %rb_type.exit.thread
  ]

10:                                               ; preds = %8
  %11 = and i64 %0, 1
  %.not.i = icmp eq i64 %11, 0
  br i1 %.not.i, label %rb_type.exit.thread, label %rb_type.exit.thread14

rb_type.exit:                                     ; preds = %3
  %12 = inttoptr i64 %0 to ptr
  %13 = load i64, ptr %12, align 8, !tbaa !44
  %14 = trunc i64 %13 to i32
  %15 = and i32 %14, 31
  switch i32 %15, label %rb_type.exit.thread [
    i32 21, label %rb_type.exit.thread14
    i32 10, label %rb_num2int_inline.exit
    i32 11, label %20
  ]

rb_type.exit.thread14:                            ; preds = %10, %rb_type.exit
  %16 = tail call i64 @rb_fix2int(i64 noundef %0) #21
  %17 = trunc i64 %16 to i32
  br label %28

rb_num2int_inline.exit:                           ; preds = %rb_type.exit
  %18 = tail call i64 @rb_num2int(i64 noundef %0) #21
  %19 = trunc i64 %18 to i32
  br label %28

20:                                               ; preds = %rb_type.exit
  %21 = tail call i64 @rb_io_taint_check(i64 noundef %0) #21
  %22 = inttoptr i64 %21 to ptr
  %23 = getelementptr inbounds nuw i8, ptr %22, i64 16
  %24 = load ptr, ptr %23, align 8, !tbaa !138
  tail call void @rb_io_check_closed(ptr noundef %24) #21
  %25 = getelementptr inbounds nuw i8, ptr %24, i64 16
  %26 = load i32, ptr %25, align 8, !tbaa !141
  br label %28

rb_type.exit.thread:                              ; preds = %10, %8, %8, %8, %8, %rb_type.exit
  %27 = load i64, ptr @rb_eTypeError, align 8, !tbaa !35
  tail call void (i64, ptr, ...) @rb_raise(i64 noundef %27, ptr noundef nonnull @.str.53) #23
  unreachable

28:                                               ; preds = %20, %rb_num2int_inline.exit, %rb_type.exit.thread14
  %.sink = phi i32 [ %26, %20 ], [ %19, %rb_num2int_inline.exit ], [ %17, %rb_type.exit.thread14 ]
  %29 = tail call i64 @rsock_fd_socket_addrinfo(i32 noundef %.sink, ptr noundef %1, i32 noundef %2)
  ret i64 %29
}